target datalayout = "e-m:e-p270:32:32-p271:32:32-p272:64:64-i64:64-i128:128-f80:128-n8:16:32:64-S128"
target triple = "x86_64-pc-linux-gnu"

%struct.Gia_ParSwi_t_ = type { i32, i32, i32, i32, i32, i32, i32 }

@.str.8 = private unnamed_addr constant [13 x i8] c"seqsimframes\00", align 1

; Function Attrs: inlinehint nounwind willreturn memory(read) uwtable
define available_externally i32 @atoi(ptr noundef nonnull %0) #8 {
  %2 = alloca ptr, align 8
  store ptr %0, ptr %2, align 8, !tbaa !66
  %3 = load ptr, ptr %2, align 8, !tbaa !66
  %4 = call i64 @strtol(ptr noundef %3, ptr noundef null, i32 noundef 10) #11
  %5 = trunc i64 %4 to i32
  ret i32 %5
}

; Function Attrs: nounwind uwtable
define void @Gia_ManSetDefaultParamsSwi(ptr noundef %0) #0 {
  %2 = alloca ptr, align 8
  store ptr %0, ptr %2, align 8, !tbaa !3
  %3 = load ptr, ptr %2, align 8, !tbaa !3
  call void @llvm.memset.p0.i64(ptr align 4 %3, i8 0, i64 28, i1 false)
  %4 = load ptr, ptr %2, align 8, !tbaa !3
  %5 = getelementptr inbounds nuw %struct.Gia_ParSwi_t_, ptr %4, i32 0, i32 0
  store i32 10, ptr %5, align 4, !tbaa !8
  %6 = load ptr, ptr %2, align 8, !tbaa !3
  %7 = getelementptr inbounds nuw %struct.Gia_ParSwi_t_, ptr %6, i32 0, i32 1
  store i32 48, ptr %7, align 4, !tbaa !11
  %8 = load ptr, ptr %2, align 8, !tbaa !3
  %9 = getelementptr inbounds nuw %struct.Gia_ParSwi_t_, ptr %8, i32 0, i32 2
  store i32 16, ptr %9, align 4, !tbaa !12
  %10 = load ptr, ptr %2, align 8, !tbaa !3
  %11 = getelementptr inbounds nuw %struct.Gia_ParSwi_t_, ptr %10, i32 0, i32 3
  store i32 0, ptr %11, align 4, !tbaa !13
  %12 = load ptr, ptr %2, align 8, !tbaa !3
  %13 = getelementptr inbounds nuw %struct.Gia_ParSwi_t_, ptr %12, i32 0, i32 4
  store i32 0, ptr %13, align 4, !tbaa !14
  %14 = load ptr, ptr %2, align 8, !tbaa !3
  %15 = getelementptr inbounds nuw %struct.Gia_ParSwi_t_, ptr %14, i32 0, i32 5
  store i32 1, ptr %15, align 4, !tbaa !15
  %16 = load ptr, ptr %2, align 8, !tbaa !3
  %17 = getelementptr inbounds nuw %struct.Gia_ParSwi_t_, ptr %16, i32 0, i32 6
  store i32 0, ptr %17, align 4, !tbaa !16
  ret void
}

; Function Attrs: nounwind uwtable
define ptr @Gia_ManComputeSwitchProbs2(ptr noundef %0, i32 noundef %1, i32 noundef %2, i32 noundef %3, i32 noundef %4) #0 {
  %6 = alloca ptr, align 8
  %7 = alloca i32, align 4
  %8 = alloca i32, align 4
  %9 = alloca i32, align 4
  %10 = alloca i32, align 4
  %11 = alloca %struct.Gia_ParSwi_t_, align 4
  %12 = alloca ptr, align 8
  store ptr %0, ptr %6, align 8, !tbaa !17
  store i32 %1, ptr %7, align 4, !tbaa !52
  store i32 %2, ptr %8, align 4, !tbaa !52
  store i32 %3, ptr %9, align 4, !tbaa !52
  store i32 %4, ptr %10, align 4, !tbaa !52
  call void @llvm.lifetime.start.p0(i64 28, ptr %11) #11
  call void @llvm.lifetime.start.p0(i64 8, ptr %12) #11
  store ptr %11, ptr %12, align 8, !tbaa !3
  %13 = load ptr, ptr %12, align 8, !tbaa !3
  call void @Gia_ManSetDefaultParamsSwi(ptr noundef %13)
  %14 = load i32, ptr %10, align 4, !tbaa !52
  %15 = load ptr, ptr %12, align 8, !tbaa !3
  %16 = getelementptr inbounds nuw %struct.Gia_ParSwi_t_, ptr %15, i32 0, i32 3
  store i32 %14, ptr %16, align 4, !tbaa !13
  %17 = load i32, ptr %7, align 4, !tbaa !52
  %18 = load ptr, ptr %12, align 8, !tbaa !3
  %19 = getelementptr inbounds nuw %struct.Gia_ParSwi_t_, ptr %18, i32 0, i32 1
  store i32 %17, ptr %19, align 4, !tbaa !11
  %20 = call ptr @Abc_FrameReadFlag(ptr noundef @.str.8)
  %21 = icmp ne ptr %20, null
  br i1 %21, label %22, label %27

22:                                               ; preds = %5
  %23 = call ptr @Abc_FrameReadFlag(ptr noundef @.str.8)
  %24 = call i32 @atoi(ptr noundef %23) #14
  %25 = load ptr, ptr %12, align 8, !tbaa !3
  %26 = getelementptr inbounds nuw %struct.Gia_ParSwi_t_, ptr %25, i32 0, i32 1
  store i32 %24, ptr %26, align 4, !tbaa !11
  br label %27

27:                                               ; preds = %22, %5
  %28 = load i32, ptr %8, align 4, !tbaa !52
  %29 = load ptr, ptr %12, align 8, !tbaa !3
  %30 = getelementptr inbounds nuw %struct.Gia_ParSwi_t_, ptr %29, i32 0, i32 2
  store i32 %28, ptr %30, align 4, !tbaa !12
  %31 = load i32, ptr %9, align 4, !tbaa !52
  %32 = icmp ne i32 %31, 0
  br i1 %32, label %33, label %38

33:                                               ; preds = %27
  %34 = load ptr, ptr %12, align 8, !tbaa !3
  %35 = getelementptr inbounds nuw %struct.Gia_ParSwi_t_, ptr %34, i32 0, i32 4
  store i32 1, ptr %35, align 4, !tbaa !14
  %36 = load ptr, ptr %12, align 8, !tbaa !3
  %37 = getelementptr inbounds nuw %struct.Gia_ParSwi_t_, ptr %36, i32 0, i32 5
  store i32 0, ptr %37, align 4, !tbaa !15
  br label %43

38:                                               ; preds = %27
  %39 = load ptr, ptr %12, align 8, !tbaa !3
  %40 = getelementptr inbounds nuw %struct.Gia_ParSwi_t_, ptr %39, i32 0, i32 4
  store i32 0, ptr %40, align 4, !tbaa !14
  %41 = load ptr, ptr %12, align 8, !tbaa !3
  %42 = getelementptr inbounds nuw %struct.Gia_ParSwi_t_, ptr %41, i32 0, i32 5
  store i32 1, ptr %42, align 4, !tbaa !15
  br label %43

43:                                               ; preds = %38, %33
  %44 = load ptr, ptr %6, align 8, !tbaa !17
  %45 = load ptr, ptr %12, align 8, !tbaa !3
  %46 = call ptr @Gia_ManSwiSimulate(ptr noundef %44, ptr noundef %45)
  call void @llvm.lifetime.end.p0(i64 8, ptr %12) #11
  call void @llvm.lifetime.end.p0(i64 28, ptr %11) #11
  ret ptr %46
}