; Function Attrs: nounwind uwtable
define noalias noundef ptr @Gia_ManComputeSwitchProbs2(ptr noundef %0, i32 noundef %1, i32 noundef %2, i32 noundef %3, i32 noundef %4) local_unnamed_addr #2 {
  %6 = alloca %struct.Gia_ParSwi_t_, align 4
  call void @llvm.lifetime.start.p0(i64 28, ptr nonnull %6) #17
  store i32 10, ptr %6, align 4, !tbaa !3
  %7 = getelementptr inbounds nuw i8, ptr %6, i64 4
  %8 = getelementptr inbounds nuw i8, ptr %6, i64 12
  %9 = getelementptr inbounds nuw i8, ptr %6, i64 24
  store i32 0, ptr %9, align 4, !tbaa !13
  store i32 %4, ptr %8, align 4, !tbaa !10
  store i32 %1, ptr %7, align 4, !tbaa !8
  %10 = tail call ptr @Abc_FrameReadFlag(ptr noundef nonnull @.str.8) #17
  %.not = icmp eq ptr %10, null
  br i1 %.not, label %15, label %11

11:                                               ; preds = %5
  %12 = tail call ptr @Abc_FrameReadFlag(ptr noundef nonnull @.str.8) #17
  %13 = tail call i64 @strtol(ptr noundef nonnull captures(none) %12, ptr noundef null, i32 noundef 10) #17
  %14 = trunc i64 %13 to i32
  store i32 %14, ptr %7, align 4, !tbaa !8
  br label %15

15:                                               ; preds = %11, %5
  %16 = getelementptr inbounds nuw i8, ptr %6, i64 20
  %17 = getelementptr inbounds nuw i8, ptr %6, i64 16
  %18 = getelementptr inbounds nuw i8, ptr %6, i64 8
  store i32 %2, ptr %18, align 4, !tbaa !9
  %.not14 = icmp ne i32 %3, 0
  %. = zext i1 %.not14 to i32
  %not..not14 = xor i1 %.not14, true
  %.16 = zext i1 %not..not14 to i32
  store i32 %., ptr %17, align 4, !tbaa !11
  store i32 %.16, ptr %16, align 4, !tbaa !12
  %19 = call ptr @Gia_ManSwiSimulate(ptr noundef %0, ptr noundef nonnull %6)
  call void @llvm.lifetime.end.p0(i64 28, ptr nonnull %6) #17
  ret ptr %19
}